; ModuleID = '32/287.c'
source_filename = "32/287.c"
target datalayout = "e-m:e-p270:32:32-p271:32:32-p272:64:64-i64:64-f80:128-n8:16:32:64-S128"
target triple = "x86_64-pc-linux-gnu"

@.str = private unnamed_addr constant [4 x i8] c"%d\0A\00", align 1
@.str.1 = private unnamed_addr constant [8 x i8] c"%s\0A%s\0A\0A\00", align 1
@.str.2 = private unnamed_addr constant [4 x i8] c"%s\0A\00", align 1

; Function Attrs: noinline nounwind uwtable
define dso_local void @main() #0 {
  %1 = alloca i32, align 4
  %2 = alloca i32, align 4
  %3 = alloca [100 x [100 x i8]], align 16
  %4 = alloca [100 x [100 x i8]], align 16
  %5 = alloca [100 x [100 x i8]], align 16
  %6 = call i32 (i8*, ...) @__isoc99_scanf(i8* getelementptr inbounds ([4 x i8], [4 x i8]* @.str, i64 0, i64 0), i32* %1)
  store i32 1, i32* %2, align 4
  br label %7

7:                                                ; preds = %38, %0
  %8 = load i32, i32* %2, align 4
  %9 = load i32, i32* %1, align 4
  %10 = icmp sle i32 %8, %9
  br i1 %10, label %11, label %41

11:                                               ; preds = %7
  %12 = load i32, i32* %2, align 4
  %13 = sext i32 %12 to i64
  %14 = getelementptr inbounds [100 x [100 x i8]], [100 x [100 x i8]]* %3, i64 0, i64 %13
  %15 = getelementptr inbounds [100 x i8], [100 x i8]* %14, i64 0, i64 0
  %16 = load i32, i32* %2, align 4
  %17 = sext i32 %16 to i64
  %18 = getelementptr inbounds [100 x [100 x i8]], [100 x [100 x i8]]* %4, i64 0, i64 %17
  %19 = getelementptr inbounds [100 x i8], [100 x i8]* %18, i64 0, i64 0
  %20 = call i32 (i8*, ...) @__isoc99_scanf(i8* getelementptr inbounds ([8 x i8], [8 x i8]* @.str.1, i64 0, i64 0), i8* %15, i8* %19)
  %21 = load i32, i32* %2, align 4
  %22 = sext i32 %21 to i64
  %23 = getelementptr inbounds [100 x [100 x i8]], [100 x [100 x i8]]* %3, i64 0, i64 %22
  %24 = getelementptr inbounds [100 x i8], [100 x i8]* %23, i64 0, i64 0
  %25 = load i32, i32* %2, align 4
  %26 = sext i32 %25 to i64
  %27 = getelementptr inbounds [100 x [100 x i8]], [100 x [100 x i8]]* %4, i64 0, i64 %26
  %28 = getelementptr inbounds [100 x i8], [100 x i8]* %27, i64 0, i64 0
  %29 = load i32, i32* %2, align 4
  %30 = sext i32 %29 to i64
  %31 = getelementptr inbounds [100 x [100 x i8]], [100 x [100 x i8]]* %5, i64 0, i64 %30
  %32 = getelementptr inbounds [100 x i8], [100 x i8]* %31, i64 0, i64 0
  call void @minus(i8* %24, i8* %28, i8* %32)
  %33 = load i32, i32* %2, align 4
  %34 = sext i32 %33 to i64
  %35 = getelementptr inbounds [100 x [100 x i8]], [100 x [100 x i8]]* %5, i64 0, i64 %34
  %36 = getelementptr inbounds [100 x i8], [100 x i8]* %35, i64 0, i64 0
  %37 = call i32 (i8*, ...) @printf(i8* getelementptr inbounds ([4 x i8], [4 x i8]* @.str.2, i64 0, i64 0), i8* %36)
  br label %38

38:                                               ; preds = %11
  %39 = load i32, i32* %2, align 4
  %40 = add nsw i32 %39, 1
  store i32 %40, i32* %2, align 4
  br label %7

41:                                               ; preds = %7
  ret void
}

declare dso_local i32 @__isoc99_scanf(i8*, ...) #1

; Function Attrs: noinline nounwind uwtable
define dso_local void @minus(i8* %0, i8* %1, i8* %2) #0 {
  %4 = alloca i8*, align 8
  %5 = alloca i8*, align 8
  %6 = alloca i8*, align 8
  %7 = alloca i32, align 4
  %8 = alloca i32, align 4
  %9 = alloca i32, align 4
  %10 = alloca i32, align 4
  %11 = alloca i32, align 4
  %12 = alloca i32, align 4
  %13 = alloca i32, align 4
  %14 = alloca i32, align 4
  %15 = alloca i8, align 1
  store i8* %0, i8** %4, align 8
  store i8* %1, i8** %5, align 8
  store i8* %2, i8** %6, align 8
  store i32 0, i32* %10, align 4
  store i32 0, i32* %11, align 4
  store i32 0, i32* %13, align 4
  %16 = load i8*, i8** %4, align 8
  %17 = call i64 @strlen(i8* %16) #3
  %18 = sub i64 %17, 1
  %19 = trunc i64 %18 to i32
  store i32 %19, i32* %7, align 4
  %20 = load i8*, i8** %5, align 8
  %21 = call i64 @strlen(i8* %20) #3
  %22 = sub i64 %21, 1
  %23 = trunc i64 %22 to i32
  store i32 %23, i32* %8, align 4
  br label %24

24:                                               ; preds = %85, %3
  %25 = load i32, i32* %7, align 4
  %26 = icmp sge i32 %25, 0
  br i1 %26, label %27, label %86

27:                                               ; preds = %24
  %28 = load i32, i32* %8, align 4
  %29 = icmp slt i32 %28, 0
  br i1 %29, label %30, label %39

30:                                               ; preds = %27
  %31 = load i8*, i8** %4, align 8
  %32 = load i32, i32* %7, align 4
  %33 = add nsw i32 %32, -1
  store i32 %33, i32* %7, align 4
  %34 = sext i32 %32 to i64
  %35 = getelementptr inbounds i8, i8* %31, i64 %34
  %36 = load i8, i8* %35, align 1
  %37 = sext i8 %36 to i32
  %38 = sub nsw i32 %37, 48
  store i32 %38, i32* %12, align 4
  br label %55

39:                                               ; preds = %27
  %40 = load i8*, i8** %4, align 8
  %41 = load i32, i32* %7, align 4
  %42 = add nsw i32 %41, -1
  store i32 %42, i32* %7, align 4
  %43 = sext i32 %41 to i64
  %44 = getelementptr inbounds i8, i8* %40, i64 %43
  %45 = load i8, i8* %44, align 1
  %46 = sext i8 %45 to i32
  %47 = load i8*, i8** %5, align 8
  %48 = load i32, i32* %8, align 4
  %49 = add nsw i32 %48, -1
  store i32 %49, i32* %8, align 4
  %50 = sext i32 %48 to i64
  %51 = getelementptr inbounds i8, i8* %47, i64 %50
  %52 = load i8, i8* %51, align 1
  %53 = sext i8 %52 to i32
  %54 = sub nsw i32 %46, %53
  store i32 %54, i32* %12, align 4
  br label %55

55:                                               ; preds = %39, %30
  %56 = load i32, i32* %12, align 4
  %57 = load i32, i32* %13, align 4
  %58 = sub nsw i32 %56, %57
  %59 = add nsw i32 %58, 48
  %60 = trunc i32 %59 to i8
  %61 = load i8*, i8** %6, align 8
  %62 = load i32, i32* %11, align 4
  %63 = add nsw i32 %62, 1
  store i32 %63, i32* %11, align 4
  %64 = sext i32 %62 to i64
  %65 = getelementptr inbounds i8, i8* %61, i64 %64
  store i8 %60, i8* %65, align 1
  %66 = load i8*, i8** %6, align 8
  %67 = load i32, i32* %11, align 4
  %68 = sub nsw i32 %67, 1
  %69 = sext i32 %68 to i64
  %70 = getelementptr inbounds i8, i8* %66, i64 %69
  %71 = load i8, i8* %70, align 1
  %72 = sext i8 %71 to i32
  %73 = icmp slt i32 %72, 48
  br i1 %73, label %74, label %84

74:                                               ; preds = %55
  %75 = load i8*, i8** %6, align 8
  %76 = load i32, i32* %11, align 4
  %77 = sub nsw i32 %76, 1
  %78 = sext i32 %77 to i64
  %79 = getelementptr inbounds i8, i8* %75, i64 %78
  %80 = load i8, i8* %79, align 1
  %81 = sext i8 %80 to i32
  %82 = add nsw i32 %81, 10
  %83 = trunc i32 %82 to i8
  store i8 %83, i8* %79, align 1
  store i32 1, i32* %13, align 4
  br label %85

84:                                               ; preds = %55
  store i32 0, i32* %13, align 4
  br label %85

85:                                               ; preds = %84, %74
  br label %24

86:                                               ; preds = %24
  br label %87

87:                                               ; preds = %95, %86
  %88 = load i8*, i8** %6, align 8
  %89 = load i32, i32* %11, align 4
  %90 = sext i32 %89 to i64
  %91 = getelementptr inbounds i8, i8* %88, i64 %90
  %92 = load i8, i8* %91, align 1
  %93 = sext i8 %92 to i32
  %94 = icmp eq i32 %93, 0
  br i1 %94, label %95, label %98

95:                                               ; preds = %87
  %96 = load i32, i32* %11, align 4
  %97 = add nsw i32 %96, -1
  store i32 %97, i32* %11, align 4
  br label %87

98:                                               ; preds = %87
  br label %99

99:                                               ; preds = %107, %98
  %100 = load i8*, i8** %6, align 8
  %101 = load i32, i32* %11, align 4
  %102 = sext i32 %101 to i64
  %103 = getelementptr inbounds i8, i8* %100, i64 %102
  %104 = load i8, i8* %103, align 1
  %105 = sext i8 %104 to i32
  %106 = icmp eq i32 %105, 48
  br i1 %106, label %107, label %114

107:                                              ; preds = %99
  %108 = load i8*, i8** %6, align 8
  %109 = load i32, i32* %11, align 4
  %110 = sext i32 %109 to i64
  %111 = getelementptr inbounds i8, i8* %108, i64 %110
  store i8 0, i8* %111, align 1
  %112 = load i32, i32* %11, align 4
  %113 = add nsw i32 %112, -1
  store i32 %113, i32* %11, align 4
  br label %99

114:                                              ; preds = %99
  %115 = load i32, i32* %11, align 4
  store i32 %115, i32* %9, align 4
  store i32 0, i32* %14, align 4
  br label %116

116:                                              ; preds = %145, %114
  %117 = load i32, i32* %14, align 4
  %118 = load i32, i32* %9, align 4
  %119 = sdiv i32 %118, 2
  %120 = icmp sle i32 %117, %119
  br i1 %120, label %121, label %148

121:                                              ; preds = %116
  %122 = load i8*, i8** %6, align 8
  %123 = load i32, i32* %14, align 4
  %124 = sext i32 %123 to i64
  %125 = getelementptr inbounds i8, i8* %122, i64 %124
  %126 = load i8, i8* %125, align 1
  store i8 %126, i8* %15, align 1
  %127 = load i8*, i8** %6, align 8
  %128 = load i32, i32* %9, align 4
  %129 = load i32, i32* %14, align 4
  %130 = sub nsw i32 %128, %129
  %131 = sext i32 %130 to i64
  %132 = getelementptr inbounds i8, i8* %127, i64 %131
  %133 = load i8, i8* %132, align 1
  %134 = load i8*, i8** %6, align 8
  %135 = load i32, i32* %14, align 4
  %136 = sext i32 %135 to i64
  %137 = getelementptr inbounds i8, i8* %134, i64 %136
  store i8 %133, i8* %137, align 1
  %138 = load i8, i8* %15, align 1
  %139 = load i8*, i8** %6, align 8
  %140 = load i32, i32* %9, align 4
  %141 = load i32, i32* %14, align 4
  %142 = sub nsw i32 %140, %141
  %143 = sext i32 %142 to i64
  %144 = getelementptr inbounds i8, i8* %139, i64 %143
  store i8 %138, i8* %144, align 1
  br label %145

145:                                              ; preds = %121
  %146 = load i32, i32* %14, align 4
  %147 = add nsw i32 %146, 1
  store i32 %147, i32* %14, align 4
  br label %116

148:                                              ; preds = %116
  ret void
}

declare dso_local i32 @printf(i8*, ...) #1

; Function Attrs: nounwind readonly
declare dso_local i64 @strlen(i8*) #2


!llvm.module.flags = !{!0}
!llvm.ident = !{!1}

!0 = !{i32 1, !"wchar_size", i32 4}
!1 = !{!"clang version 10.0.0-4ubuntu1 "}
